target datalayout = "e-m:e-p270:32:32-p271:32:32-p272:64:64-i64:64-i128:128-f80:128-n8:16:32:64-S128"
target triple = "x86_64-pc-linux-gnu"

; Function Attrs: nounwind sspstrong uwtable
define internal void @bary_mul_karatsuba_start(ptr noundef %0, i64 noundef %1, ptr noundef %2, i64 noundef %3, ptr noundef %4, i64 noundef %5, ptr noundef %6, i64 noundef %7) #0 {
  %9 = alloca ptr, align 8
  %10 = alloca i64, align 8
  %11 = alloca ptr, align 8
  %12 = alloca i64, align 8
  %13 = alloca ptr, align 8
  %14 = alloca i64, align 8
  %15 = alloca ptr, align 8
  %16 = alloca i64, align 8
  store ptr %0, ptr %9, align 8, !tbaa !24
  store i64 %1, ptr %10, align 8, !tbaa !7
  store ptr %2, ptr %11, align 8, !tbaa !24
  store i64 %3, ptr %12, align 8, !tbaa !7
  store ptr %4, ptr %13, align 8, !tbaa !24
  store i64 %5, ptr %14, align 8, !tbaa !7
  store ptr %6, ptr %15, align 8, !tbaa !24
  store i64 %7, ptr %16, align 8, !tbaa !7
  %17 = call i32 @bary_mul_precheck(ptr noundef %9, ptr noundef %10, ptr noundef %11, ptr noundef %12, ptr noundef %13, ptr noundef %14)
  %18 = icmp ne i32 %17, 0
  br i1 %18, label %19, label %20

19:                                               ; preds = %8
  br label %29

20:                                               ; preds = %8
  %21 = load ptr, ptr %9, align 8, !tbaa !24
  %22 = load i64, ptr %10, align 8, !tbaa !7
  %23 = load ptr, ptr %11, align 8, !tbaa !24
  %24 = load i64, ptr %12, align 8, !tbaa !7
  %25 = load ptr, ptr %13, align 8, !tbaa !24
  %26 = load i64, ptr %14, align 8, !tbaa !7
  %27 = load ptr, ptr %15, align 8, !tbaa !24
  %28 = load i64, ptr %16, align 8, !tbaa !7
  call void @bary_mul_karatsuba_branch(ptr noundef %21, i64 noundef %22, ptr noundef %23, i64 noundef %24, ptr noundef %25, i64 noundef %26, ptr noundef %27, i64 noundef %28)
  br label %29

29:                                               ; preds = %20, %19
  ret void
}